; Function Attrs: nounwind uwtable
define internal i32 @get_rsa_payload_e1(i32 noundef %0, ptr noundef captures(address_is_null) %1, ptr noundef %2) #0 {
  %4 = getelementptr inbounds nuw i8, ptr %2, i64 32
  %5 = load ptr, ptr %4, align 8, !tbaa !35
  %6 = tail call i32 @EVP_PKEY_get_base_id(ptr noundef %5) #8
  %.not = icmp eq i32 %6, 6
  br i1 %.not, label %10, label %7

7:                                                ; preds = %3
  %8 = load ptr, ptr %4, align 8, !tbaa !35
  %9 = tail call i32 @EVP_PKEY_get_base_id(ptr noundef %8) #8
  %.not5 = icmp eq i32 %9, 912
  br i1 %.not5, label %10, label %get_rsa_payload_exponent.exit

10:                                               ; preds = %7, %3
  %11 = load ptr, ptr %4, align 8, !tbaa !35
  %12 = tail call ptr @EVP_PKEY_get0_RSA(ptr noundef %11) #8
  %13 = tail call ptr @RSA_get0_dmp1(ptr noundef %12) #8
  %14 = icmp eq ptr %13, null
  br i1 %14, label %get_rsa_payload_exponent.exit, label %15

15:                                               ; preds = %10
  %16 = getelementptr inbounds nuw i8, ptr %2, i64 48
  %17 = load ptr, ptr %16, align 8, !tbaa !37
  %18 = getelementptr inbounds nuw i8, ptr %17, i64 8
  %19 = load i32, ptr %18, align 8, !tbaa !57
  %.not.i.i = icmp eq i32 %19, 2
  br i1 %.not.i.i, label %20, label %get_rsa_payload_exponent.exit

20:                                               ; preds = %15
  store ptr %13, ptr %4, align 8, !tbaa !35
  %21 = tail call i32 @default_fixup_args(i32 noundef %0, ptr noundef %1, ptr noundef nonnull %2)
  br label %get_rsa_payload_exponent.exit

get_rsa_payload_exponent.exit:                    ; preds = %20, %15, %10, %7
  %.0 = phi i32 [ 0, %7 ], [ %21, %20 ], [ 0, %10 ], [ 0, %15 ]
  ret i32 %.0
}